target datalayout = "e-m:e-p270:32:32-p271:32:32-p272:64:64-i64:64-i128:128-f80:128-n8:16:32:64-S128"
target triple = "x86_64-pc-linux-gnu"

%struct.path_walk_info = type { ptr, ptr, ptr, i32, i32, i32, i32, i32 }

; Function Attrs: nounwind uwtable
define dso_local void @path_walk_info_init(ptr noundef %0) #0 {
  %2 = alloca ptr, align 8
  %3 = alloca %struct.path_walk_info, align 8
  store ptr %0, ptr %2, align 8, !tbaa !4
  call void @llvm.lifetime.start.p0(i64 48, ptr %3) #9
  call void @llvm.memset.p0.i64(ptr align 8 %3, i8 0, i64 48, i1 false)
  %4 = getelementptr inbounds { ptr, ptr, ptr, i32, i32, i32, i32, i32, [4 x i8] }, ptr %3, i32 0, i32 3
  store i32 1, ptr %4, align 8
  %5 = getelementptr inbounds { ptr, ptr, ptr, i32, i32, i32, i32, i32, [4 x i8] }, ptr %3, i32 0, i32 4
  store i32 1, ptr %5, align 4
  %6 = getelementptr inbounds { ptr, ptr, ptr, i32, i32, i32, i32, i32, [4 x i8] }, ptr %3, i32 0, i32 5
  store i32 1, ptr %6, align 8
  %7 = getelementptr inbounds { ptr, ptr, ptr, i32, i32, i32, i32, i32, [4 x i8] }, ptr %3, i32 0, i32 6
  store i32 1, ptr %7, align 4
  %8 = load ptr, ptr %2, align 8, !tbaa !4
  call void @llvm.memcpy.p0.p0.i64(ptr align 8 %8, ptr align 8 %3, i64 48, i1 false)
  call void @llvm.lifetime.end.p0(i64 48, ptr %3) #9
  ret void
}